target datalayout = "e-m:e-p270:32:32-p271:32:32-p272:64:64-i64:64-i128:128-f80:128-n8:16:32:64-S128"
target triple = "x86_64-pc-linux-gnu"

%struct.WebPDecParams = type { ptr, ptr, ptr, ptr, i32, ptr, ptr, ptr, ptr, ptr, ptr, ptr, ptr, ptr }
%struct.WebPDecBuffer = type { i32, i32, i32, i32, %union.anon, [4 x i32], ptr }
%union.anon = type { %struct.WebPYUVABuffer }
%struct.WebPYUVABuffer = type { ptr, ptr, ptr, ptr, i32, i32, i32, i32, i64, i64, i64, i64 }
%struct.WebPRescaler = type { i32, i32, i32, i32, i32, i32, i32, i32, i32, i32, i32, i32, i32, i32, i32, i32, i32, ptr, i32, ptr, ptr }
%struct.WebPRGBABuffer = type { ptr, i32, i64 }

@WebPApplyAlphaMultiply4444 = external global ptr, align 8

; Function Attrs: inlinehint nounwind uwtable
define internal i32 @WebPRescalerOutputDone(ptr noundef %0) #2 {
  %2 = alloca ptr, align 8
  store ptr %0, ptr %2, align 8, !tbaa !45
  %3 = load ptr, ptr %2, align 8, !tbaa !45
  %4 = getelementptr inbounds nuw %struct.WebPRescaler, ptr %3, i32 0, i32 16
  %5 = load i32, ptr %4, align 8, !tbaa !95
  %6 = load ptr, ptr %2, align 8, !tbaa !45
  %7 = getelementptr inbounds nuw %struct.WebPRescaler, ptr %6, i32 0, i32 14
  %8 = load i32, ptr %7, align 8, !tbaa !96
  %9 = icmp sge i32 %5, %8
  %10 = zext i1 %9 to i32
  ret i32 %10
}

; Function Attrs: inlinehint nounwind uwtable
define internal i32 @WebPRescalerHasPendingOutput(ptr noundef %0) #2 {
  %2 = alloca ptr, align 8
  store ptr %0, ptr %2, align 8, !tbaa !45
  %3 = load ptr, ptr %2, align 8, !tbaa !45
  %4 = call i32 @WebPRescalerOutputDone(ptr noundef %3)
  %5 = icmp ne i32 %4, 0
  br i1 %5, label %11, label %6

6:                                                ; preds = %1
  %7 = load ptr, ptr %2, align 8, !tbaa !45
  %8 = getelementptr inbounds nuw %struct.WebPRescaler, ptr %7, i32 0, i32 6
  %9 = load i32, ptr %8, align 8, !tbaa !94
  %10 = icmp sle i32 %9, 0
  br label %11

11:                                               ; preds = %6, %1
  %12 = phi i1 [ false, %1 ], [ %10, %6 ]
  %13 = zext i1 %12 to i32
  ret i32 %13
}

; Function Attrs: inlinehint nounwind uwtable
define internal i32 @WebPIsPremultipliedMode(i32 noundef %0) #2 {
  %2 = alloca i32, align 4
  store i32 %0, ptr %2, align 4, !tbaa !19
  %3 = load i32, ptr %2, align 4, !tbaa !19
  %4 = icmp eq i32 %3, 7
  br i1 %4, label %14, label %5

5:                                                ; preds = %1
  %6 = load i32, ptr %2, align 4, !tbaa !19
  %7 = icmp eq i32 %6, 8
  br i1 %7, label %14, label %8

8:                                                ; preds = %5
  %9 = load i32, ptr %2, align 4, !tbaa !19
  %10 = icmp eq i32 %9, 9
  br i1 %10, label %14, label %11

11:                                               ; preds = %8
  %12 = load i32, ptr %2, align 4, !tbaa !19
  %13 = icmp eq i32 %12, 10
  br label %14

14:                                               ; preds = %11, %8, %5, %1
  %15 = phi i1 [ true, %8 ], [ true, %5 ], [ true, %1 ], [ %13, %11 ]
  %16 = zext i1 %15 to i32
  ret i32 %16
}

; Function Attrs: nounwind uwtable
define internal i32 @ExportAlphaRGBA4444(ptr noundef %0, i32 noundef %1, i32 noundef %2) #0 {
  %4 = alloca ptr, align 8
  %5 = alloca i32, align 4
  %6 = alloca i32, align 4
  %7 = alloca ptr, align 8
  %8 = alloca ptr, align 8
  %9 = alloca ptr, align 8
  %10 = alloca i32, align 4
  %11 = alloca i32, align 4
  %12 = alloca i32, align 4
  %13 = alloca i32, align 4
  %14 = alloca i32, align 4
  %15 = alloca i32, align 4
  %16 = alloca i32, align 4
  store ptr %0, ptr %4, align 8, !tbaa !3
  store i32 %1, ptr %5, align 4, !tbaa !19
  store i32 %2, ptr %6, align 4, !tbaa !19
  call void @llvm.lifetime.start.p0(i64 8, ptr %7) #6
  %17 = load ptr, ptr %4, align 8, !tbaa !3
  %18 = getelementptr inbounds nuw %struct.WebPDecParams, ptr %17, i32 0, i32 0
  %19 = load ptr, ptr %18, align 8, !tbaa !28
  %20 = getelementptr inbounds nuw %struct.WebPDecBuffer, ptr %19, i32 0, i32 4
  store ptr %20, ptr %7, align 8, !tbaa !62
  call void @llvm.lifetime.start.p0(i64 8, ptr %8) #6
  %21 = load ptr, ptr %7, align 8, !tbaa !62
  %22 = getelementptr inbounds nuw %struct.WebPRGBABuffer, ptr %21, i32 0, i32 0
  %23 = load ptr, ptr %22, align 8, !tbaa !64
  %24 = load i32, ptr %5, align 4, !tbaa !19
  %25 = sext i32 %24 to i64
  %26 = load ptr, ptr %7, align 8, !tbaa !62
  %27 = getelementptr inbounds nuw %struct.WebPRGBABuffer, ptr %26, i32 0, i32 1
  %28 = load i32, ptr %27, align 8, !tbaa !67
  %29 = sext i32 %28 to i64
  %30 = mul nsw i64 %25, %29
  %31 = getelementptr inbounds i8, ptr %23, i64 %30
  store ptr %31, ptr %8, align 8, !tbaa !44
  call void @llvm.lifetime.start.p0(i64 8, ptr %9) #6
  %32 = load ptr, ptr %8, align 8, !tbaa !44
  %33 = getelementptr inbounds i8, ptr %32, i64 1
  store ptr %33, ptr %9, align 8, !tbaa !44
  call void @llvm.lifetime.start.p0(i64 4, ptr %10) #6
  store i32 0, ptr %10, align 4, !tbaa !19
  call void @llvm.lifetime.start.p0(i64 4, ptr %11) #6
  %34 = load ptr, ptr %4, align 8, !tbaa !3
  %35 = getelementptr inbounds nuw %struct.WebPDecParams, ptr %34, i32 0, i32 0
  %36 = load ptr, ptr %35, align 8, !tbaa !28
  %37 = getelementptr inbounds nuw %struct.WebPDecBuffer, ptr %36, i32 0, i32 0
  %38 = load i32, ptr %37, align 8, !tbaa !29
  store i32 %38, ptr %11, align 4, !tbaa !19
  call void @llvm.lifetime.start.p0(i64 4, ptr %12) #6
  %39 = load ptr, ptr %4, align 8, !tbaa !3
  %40 = getelementptr inbounds nuw %struct.WebPDecParams, ptr %39, i32 0, i32 9
  %41 = load ptr, ptr %40, align 8, !tbaa !49
  %42 = getelementptr inbounds nuw %struct.WebPRescaler, ptr %41, i32 0, i32 13
  %43 = load i32, ptr %42, align 4, !tbaa !88
  store i32 %43, ptr %12, align 4, !tbaa !19
  call void @llvm.lifetime.start.p0(i64 4, ptr %13) #6
  %44 = load i32, ptr %11, align 4, !tbaa !19
  %45 = call i32 @WebPIsPremultipliedMode(i32 noundef %44)
  store i32 %45, ptr %13, align 4, !tbaa !19
  call void @llvm.lifetime.start.p0(i64 4, ptr %14) #6
  store i32 15, ptr %14, align 4, !tbaa !19
  br label %46

46:                                               ; preds = %100, %3
  %47 = load ptr, ptr %4, align 8, !tbaa !3
  %48 = getelementptr inbounds nuw %struct.WebPDecParams, ptr %47, i32 0, i32 9
  %49 = load ptr, ptr %48, align 8, !tbaa !49
  %50 = call i32 @WebPRescalerHasPendingOutput(ptr noundef %49)
  %51 = icmp ne i32 %50, 0
  br i1 %51, label %52, label %56

52:                                               ; preds = %46
  %53 = load i32, ptr %10, align 4, !tbaa !19
  %54 = load i32, ptr %6, align 4, !tbaa !19
  %55 = icmp slt i32 %53, %54
  br label %56

56:                                               ; preds = %52, %46
  %57 = phi i1 [ false, %46 ], [ %55, %52 ]
  br i1 %57, label %58, label %109

58:                                               ; preds = %56
  call void @llvm.lifetime.start.p0(i64 4, ptr %15) #6
  %59 = load ptr, ptr %4, align 8, !tbaa !3
  %60 = getelementptr inbounds nuw %struct.WebPDecParams, ptr %59, i32 0, i32 9
  %61 = load ptr, ptr %60, align 8, !tbaa !49
  call void @WebPRescalerExportRow(ptr noundef %61)
  store i32 0, ptr %15, align 4, !tbaa !19
  br label %62

62:                                               ; preds = %97, %58
  %63 = load i32, ptr %15, align 4, !tbaa !19
  %64 = load i32, ptr %12, align 4, !tbaa !19
  %65 = icmp slt i32 %63, %64
  br i1 %65, label %66, label %100

66:                                               ; preds = %62
  call void @llvm.lifetime.start.p0(i64 4, ptr %16) #6
  %67 = load ptr, ptr %4, align 8, !tbaa !3
  %68 = getelementptr inbounds nuw %struct.WebPDecParams, ptr %67, i32 0, i32 9
  %69 = load ptr, ptr %68, align 8, !tbaa !49
  %70 = getelementptr inbounds nuw %struct.WebPRescaler, ptr %69, i32 0, i32 17
  %71 = load ptr, ptr %70, align 8, !tbaa !89
  %72 = load i32, ptr %15, align 4, !tbaa !19
  %73 = sext i32 %72 to i64
  %74 = getelementptr inbounds i8, ptr %71, i64 %73
  %75 = load i8, ptr %74, align 1, !tbaa !79
  %76 = zext i8 %75 to i32
  %77 = ashr i32 %76, 4
  store i32 %77, ptr %16, align 4, !tbaa !19
  %78 = load ptr, ptr %9, align 8, !tbaa !44
  %79 = load i32, ptr %15, align 4, !tbaa !19
  %80 = mul nsw i32 2, %79
  %81 = sext i32 %80 to i64
  %82 = getelementptr inbounds i8, ptr %78, i64 %81
  %83 = load i8, ptr %82, align 1, !tbaa !79
  %84 = zext i8 %83 to i32
  %85 = and i32 %84, 240
  %86 = load i32, ptr %16, align 4, !tbaa !19
  %87 = or i32 %85, %86
  %88 = trunc i32 %87 to i8
  %89 = load ptr, ptr %9, align 8, !tbaa !44
  %90 = load i32, ptr %15, align 4, !tbaa !19
  %91 = mul nsw i32 2, %90
  %92 = sext i32 %91 to i64
  %93 = getelementptr inbounds i8, ptr %89, i64 %92
  store i8 %88, ptr %93, align 1, !tbaa !79
  %94 = load i32, ptr %16, align 4, !tbaa !19
  %95 = load i32, ptr %14, align 4, !tbaa !19
  %96 = and i32 %95, %94
  store i32 %96, ptr %14, align 4, !tbaa !19
  call void @llvm.lifetime.end.p0(i64 4, ptr %16) #6
  br label %97

97:                                               ; preds = %66
  %98 = load i32, ptr %15, align 4, !tbaa !19
  %99 = add nsw i32 %98, 1
  store i32 %99, ptr %15, align 4, !tbaa !19
  br label %62, !llvm.loop !90

100:                                              ; preds = %62
  %101 = load ptr, ptr %7, align 8, !tbaa !62
  %102 = getelementptr inbounds nuw %struct.WebPRGBABuffer, ptr %101, i32 0, i32 1
  %103 = load i32, ptr %102, align 8, !tbaa !67
  %104 = load ptr, ptr %9, align 8, !tbaa !44
  %105 = sext i32 %103 to i64
  %106 = getelementptr inbounds i8, ptr %104, i64 %105
  store ptr %106, ptr %9, align 8, !tbaa !44
  %107 = load i32, ptr %10, align 4, !tbaa !19
  %108 = add nsw i32 %107, 1
  store i32 %108, ptr %10, align 4, !tbaa !19
  call void @llvm.lifetime.end.p0(i64 4, ptr %15) #6
  br label %46, !llvm.loop !91

109:                                              ; preds = %56
  %110 = load i32, ptr %13, align 4, !tbaa !19
  %111 = icmp ne i32 %110, 0
  br i1 %111, label %112, label %123

112:                                              ; preds = %109
  %113 = load i32, ptr %14, align 4, !tbaa !19
  %114 = icmp ne i32 %113, 15
  br i1 %114, label %115, label %123

115:                                              ; preds = %112
  %116 = load ptr, ptr @WebPApplyAlphaMultiply4444, align 8, !tbaa !73
  %117 = load ptr, ptr %8, align 8, !tbaa !44
  %118 = load i32, ptr %12, align 4, !tbaa !19
  %119 = load i32, ptr %10, align 4, !tbaa !19
  %120 = load ptr, ptr %7, align 8, !tbaa !62
  %121 = getelementptr inbounds nuw %struct.WebPRGBABuffer, ptr %120, i32 0, i32 1
  %122 = load i32, ptr %121, align 8, !tbaa !67
  call void %116(ptr noundef %117, i32 noundef %118, i32 noundef %119, i32 noundef %122)
  br label %123

123:                                              ; preds = %115, %112, %109
  %124 = load i32, ptr %10, align 4, !tbaa !19
  call void @llvm.lifetime.end.p0(i64 4, ptr %14) #6
  call void @llvm.lifetime.end.p0(i64 4, ptr %13) #6
  call void @llvm.lifetime.end.p0(i64 4, ptr %12) #6
  call void @llvm.lifetime.end.p0(i64 4, ptr %11) #6
  call void @llvm.lifetime.end.p0(i64 4, ptr %10) #6
  call void @llvm.lifetime.end.p0(i64 8, ptr %9) #6
  call void @llvm.lifetime.end.p0(i64 8, ptr %8) #6
  call void @llvm.lifetime.end.p0(i64 8, ptr %7) #6
  ret i32 %124
}