; Function Attrs: nounwind uwtable
define internal i32 @ExportAlphaRGBA4444(ptr noundef readonly captures(none) %0, i32 noundef %1, i32 noundef %2) #1 {
  %4 = load ptr, ptr %0, align 8, !tbaa !23
  %5 = getelementptr inbounds nuw i8, ptr %4, i64 16
  %6 = load ptr, ptr %5, align 8, !tbaa !49
  %7 = sext i32 %1 to i64
  %8 = getelementptr inbounds nuw i8, ptr %4, i64 24
  %9 = load i32, ptr %8, align 8, !tbaa !52
  %10 = sext i32 %9 to i64
  %11 = mul nsw i64 %10, %7
  %12 = getelementptr inbounds i8, ptr %6, i64 %11
  %13 = load i32, ptr %4, align 8, !tbaa !24
  %14 = getelementptr inbounds nuw i8, ptr %0, i64 72
  %15 = load ptr, ptr %14, align 8, !tbaa !34
  %16 = getelementptr inbounds nuw i8, ptr %15, i64 52
  %17 = load i32, ptr %16, align 4, !tbaa !76
  %.fr52 = freeze i32 %17
  %18 = add i32 %13, -7
  %narrow.i = icmp ult i32 %18, 4
  %19 = getelementptr i8, ptr %15, i64 56
  %.val.i39 = load i32, ptr %19, align 8, !tbaa !70
  %20 = getelementptr i8, ptr %15, i64 64
  %.val2.i40 = load i32, ptr %20, align 8, !tbaa !73
  %.not3.i41 = icmp slt i32 %.val2.i40, %.val.i39
  br i1 %.not3.i41, label %WebPRescalerHasPendingOutput.exit.lr.ph, label %WebPRescalerHasPendingOutput.exit.thread.thread

WebPRescalerHasPendingOutput.exit.lr.ph:          ; preds = %3
  %21 = icmp sgt i32 %.fr52, 0
  br i1 %21, label %WebPRescalerHasPendingOutput.exit.us.preheader, label %WebPRescalerHasPendingOutput.exit

WebPRescalerHasPendingOutput.exit.us.preheader:   ; preds = %WebPRescalerHasPendingOutput.exit.lr.ph
  %22 = getelementptr inbounds nuw i8, ptr %12, i64 1
  %wide.trip.count = zext nneg i32 %.fr52 to i64
  br label %WebPRescalerHasPendingOutput.exit.us

WebPRescalerHasPendingOutput.exit.us:             ; preds = %WebPRescalerHasPendingOutput.exit.us.preheader, %._crit_edge.us
  %23 = phi ptr [ %47, %._crit_edge.us ], [ %15, %WebPRescalerHasPendingOutput.exit.us.preheader ]
  %.044.us = phi ptr [ %45, %._crit_edge.us ], [ %22, %WebPRescalerHasPendingOutput.exit.us.preheader ]
  %.03543.us = phi i32 [ %42, %._crit_edge.us ], [ 15, %WebPRescalerHasPendingOutput.exit.us.preheader ]
  %.03642.us = phi i32 [ %46, %._crit_edge.us ], [ 0, %WebPRescalerHasPendingOutput.exit.us.preheader ]
  %24 = getelementptr inbounds nuw i8, ptr %23, i64 24
  %25 = load i32, ptr %24, align 8, !tbaa !74
  %26 = icmp slt i32 %25, 1
  %27 = icmp slt i32 %.03642.us, %2
  %28 = select i1 %26, i1 %27, i1 false
  br i1 %28, label %.lr.ph.us, label %WebPRescalerHasPendingOutput.exit.thread

.lr.ph.us:                                        ; preds = %WebPRescalerHasPendingOutput.exit.us
  tail call void @WebPRescalerExportRow(ptr noundef nonnull %23) #6
  br label %29

29:                                               ; preds = %.lr.ph.us, %29
  %indvars.iv = phi i64 [ 0, %.lr.ph.us ], [ %indvars.iv.next, %29 ]
  %.137.us = phi i32 [ %.03543.us, %.lr.ph.us ], [ %42, %29 ]
  %30 = load ptr, ptr %14, align 8, !tbaa !34
  %31 = getelementptr inbounds nuw i8, ptr %30, i64 72
  %32 = load ptr, ptr %31, align 8, !tbaa !75
  %33 = getelementptr inbounds nuw i8, ptr %32, i64 %indvars.iv
  %34 = load i8, ptr %33, align 1, !tbaa !65
  %35 = lshr i8 %34, 4
  %36 = zext nneg i8 %35 to i32
  %37 = shl nuw nsw i64 %indvars.iv, 1
  %38 = getelementptr inbounds nuw i8, ptr %.044.us, i64 %37
  %39 = load i8, ptr %38, align 1, !tbaa !65
  %40 = and i8 %39, -16
  %41 = or disjoint i8 %40, %35
  store i8 %41, ptr %38, align 1, !tbaa !65
  %42 = and i32 %.137.us, %36
  %indvars.iv.next = add nuw nsw i64 %indvars.iv, 1
  %exitcond.not = icmp eq i64 %indvars.iv.next, %wide.trip.count
  br i1 %exitcond.not, label %._crit_edge.us, label %29, !llvm.loop !81

._crit_edge.us:                                   ; preds = %29
  %43 = load i32, ptr %8, align 8, !tbaa !52
  %44 = sext i32 %43 to i64
  %45 = getelementptr inbounds i8, ptr %.044.us, i64 %44
  %46 = add nuw nsw i32 %.03642.us, 1
  %47 = load ptr, ptr %14, align 8, !tbaa !34
  %48 = getelementptr i8, ptr %47, i64 56
  %.val.i.us = load i32, ptr %48, align 8, !tbaa !70
  %49 = getelementptr i8, ptr %47, i64 64
  %.val2.i.us = load i32, ptr %49, align 8, !tbaa !73
  %.not3.i.us = icmp slt i32 %.val2.i.us, %.val.i.us
  br i1 %.not3.i.us, label %WebPRescalerHasPendingOutput.exit.us, label %WebPRescalerHasPendingOutput.exit.thread, !llvm.loop !82

WebPRescalerHasPendingOutput.exit:                ; preds = %WebPRescalerHasPendingOutput.exit.lr.ph, %56
  %50 = phi ptr [ %58, %56 ], [ %15, %WebPRescalerHasPendingOutput.exit.lr.ph ]
  %.03642 = phi i32 [ %57, %56 ], [ 0, %WebPRescalerHasPendingOutput.exit.lr.ph ]
  %51 = getelementptr inbounds nuw i8, ptr %50, i64 24
  %52 = load i32, ptr %51, align 8, !tbaa !74
  %53 = icmp slt i32 %52, 1
  %54 = icmp slt i32 %.03642, %2
  %55 = select i1 %53, i1 %54, i1 false
  br i1 %55, label %56, label %WebPRescalerHasPendingOutput.exit.thread.thread

56:                                               ; preds = %WebPRescalerHasPendingOutput.exit
  tail call void @WebPRescalerExportRow(ptr noundef nonnull %50) #6
  %57 = add nuw nsw i32 %.03642, 1
  %58 = load ptr, ptr %14, align 8, !tbaa !34
  %59 = getelementptr i8, ptr %58, i64 56
  %.val.i = load i32, ptr %59, align 8, !tbaa !70
  %60 = getelementptr i8, ptr %58, i64 64
  %.val2.i = load i32, ptr %60, align 8, !tbaa !73
  %.not3.i = icmp slt i32 %.val2.i, %.val.i
  br i1 %.not3.i, label %WebPRescalerHasPendingOutput.exit, label %WebPRescalerHasPendingOutput.exit.thread.thread, !llvm.loop !82

WebPRescalerHasPendingOutput.exit.thread:         ; preds = %WebPRescalerHasPendingOutput.exit.us, %._crit_edge.us
  %.036.lcssa.ph = phi i32 [ %.03642.us, %WebPRescalerHasPendingOutput.exit.us ], [ %46, %._crit_edge.us ]
  %.035.lcssa.ph = phi i32 [ %.03543.us, %WebPRescalerHasPendingOutput.exit.us ], [ %42, %._crit_edge.us ]
  %61 = icmp ne i32 %.035.lcssa.ph, 15
  %or.cond = select i1 %narrow.i, i1 %61, i1 false
  br i1 %or.cond, label %62, label %WebPRescalerHasPendingOutput.exit.thread.thread

62:                                               ; preds = %WebPRescalerHasPendingOutput.exit.thread
  %63 = load ptr, ptr @WebPApplyAlphaMultiply4444, align 8, !tbaa !58
  %64 = load i32, ptr %8, align 8, !tbaa !52
  tail call void %63(ptr noundef %12, i32 noundef %.fr52, i32 noundef %.036.lcssa.ph, i32 noundef %64) #6
  br label %WebPRescalerHasPendingOutput.exit.thread.thread

WebPRescalerHasPendingOutput.exit.thread.thread:  ; preds = %WebPRescalerHasPendingOutput.exit, %56, %3, %62, %WebPRescalerHasPendingOutput.exit.thread
  %.036.lcssa60 = phi i32 [ %.036.lcssa.ph, %62 ], [ %.036.lcssa.ph, %WebPRescalerHasPendingOutput.exit.thread ], [ 0, %3 ], [ %.03642, %WebPRescalerHasPendingOutput.exit ], [ %57, %56 ]
  ret i32 %.036.lcssa60
}